target datalayout = "e-m:e-p270:32:32-p271:32:32-p272:64:64-i64:64-i128:128-f80:128-n8:16:32:64-S128"
target triple = "x86_64-pc-linux-gnu"

%"class.std::basic_string_view" = type { i64, ptr }

@.str.9 = private unnamed_addr constant [15 x i8] c"Check failed: \00", align 1
@.str.10 = private unnamed_addr constant [2 x i8] c" \00", align 1

; Function Attrs: noinline noreturn nounwind uwtable
define linkonce_odr hidden void @__clang_call_terminate(ptr noundef %0) #13 comdat {
  %2 = call ptr @__cxa_begin_catch(ptr %0) #24
  call void @_ZSt9terminatev() #25
  unreachable
}

; Function Attrs: mustprogress nounwind uwtable
define linkonce_odr dso_local noundef i64 @_ZNSt11char_traitsIcE6lengthEPKc(ptr noundef %0) #3 comdat align 2 {
  %2 = alloca ptr, align 8
  store ptr %0, ptr %2, align 8, !tbaa !11
  %3 = load ptr, ptr %2, align 8, !tbaa !11
  %4 = call i64 @strlen(ptr noundef %3) #24
  ret i64 %4
}

; Function Attrs: mustprogress nounwind uwtable
define linkonce_odr dso_local void @_ZNSt17basic_string_viewIcSt11char_traitsIcEEC2EPKc(ptr noundef nonnull align 8 dereferenceable(16) %0, ptr noundef nonnull %1) unnamed_addr #3 comdat align 2 personality ptr @__gxx_personality_v0 {
  %3 = alloca ptr, align 8
  %4 = alloca ptr, align 8
  store ptr %0, ptr %3, align 8, !tbaa !65
  store ptr %1, ptr %4, align 8, !tbaa !11
  %5 = load ptr, ptr %3, align 8
  %6 = getelementptr inbounds nuw %"class.std::basic_string_view", ptr %5, i32 0, i32 0
  %7 = load ptr, ptr %4, align 8, !tbaa !11
  %8 = invoke noundef i64 @_ZNSt11char_traitsIcE6lengthEPKc(ptr noundef %7)
          to label %9 unwind label %12

9:                                                ; preds = %2
  store i64 %8, ptr %6, align 8, !tbaa !67
  %10 = getelementptr inbounds nuw %"class.std::basic_string_view", ptr %5, i32 0, i32 1
  %11 = load ptr, ptr %4, align 8, !tbaa !11
  store ptr %11, ptr %10, align 8, !tbaa !111
  ret void

12:                                               ; preds = %2
  %13 = landingpad { ptr, i32 }
          catch ptr null
  %14 = extractvalue { ptr, i32 } %13, 0
  call void @__clang_call_terminate(ptr %14) #25
  unreachable
}

; Function Attrs: mustprogress uwtable
define linkonce_odr dso_local noundef nonnull align 8 dereferenceable(16) ptr @_ZN4absl12log_internal10LogMessagelsILi2EEERS1_RAT__Kc(ptr noundef nonnull align 8 dereferenceable(16) %0, ptr noundef nonnull align 1 dereferenceable(2) %1) #0 comdat align 2 {
  %3 = alloca ptr, align 8
  %4 = alloca ptr, align 8
  %5 = alloca %"class.std::basic_string_view", align 8
  store ptr %0, ptr %3, align 8, !tbaa !9
  store ptr %1, ptr %4, align 8, !tbaa !11
  %6 = load ptr, ptr %3, align 8
  %7 = load ptr, ptr %4, align 8, !tbaa !11
  %8 = getelementptr inbounds [2 x i8], ptr %7, i64 0, i64 0
  call void @_ZNSt17basic_string_viewIcSt11char_traitsIcEEC2EPKc(ptr noundef nonnull align 8 dereferenceable(16) %5, ptr noundef %8) #24
  %9 = getelementptr inbounds nuw { i64, ptr }, ptr %5, i32 0, i32 0
  %10 = load i64, ptr %9, align 8
  %11 = getelementptr inbounds nuw { i64, ptr }, ptr %5, i32 0, i32 1
  %12 = load ptr, ptr %11, align 8
  call void @_ZN4absl12log_internal10LogMessage19CopyToEncodedBufferILNS1_10StringTypeE0EEEvSt17basic_string_viewIcSt11char_traitsIcEE(ptr noundef nonnull align 8 dereferenceable(16) %6, i64 %10, ptr %12)
  ret ptr %6
}

; Function Attrs: mustprogress uwtable
define linkonce_odr dso_local noundef nonnull align 8 dereferenceable(16) ptr @_ZN4absl12log_internal10LogMessagelsILi15EEERS1_RAT__Kc(ptr noundef nonnull align 8 dereferenceable(16) %0, ptr noundef nonnull align 1 dereferenceable(15) %1) #0 comdat align 2 {
  %3 = alloca ptr, align 8
  %4 = alloca ptr, align 8
  %5 = alloca %"class.std::basic_string_view", align 8
  store ptr %0, ptr %3, align 8, !tbaa !9
  store ptr %1, ptr %4, align 8, !tbaa !11
  %6 = load ptr, ptr %3, align 8
  %7 = load ptr, ptr %4, align 8, !tbaa !11
  %8 = getelementptr inbounds [15 x i8], ptr %7, i64 0, i64 0
  call void @_ZNSt17basic_string_viewIcSt11char_traitsIcEEC2EPKc(ptr noundef nonnull align 8 dereferenceable(16) %5, ptr noundef %8) #24
  %9 = getelementptr inbounds nuw { i64, ptr }, ptr %5, i32 0, i32 0
  %10 = load i64, ptr %9, align 8
  %11 = getelementptr inbounds nuw { i64, ptr }, ptr %5, i32 0, i32 1
  %12 = load ptr, ptr %11, align 8
  call void @_ZN4absl12log_internal10LogMessage19CopyToEncodedBufferILNS1_10StringTypeE0EEEvSt17basic_string_viewIcSt11char_traitsIcEE(ptr noundef nonnull align 8 dereferenceable(16) %6, i64 %10, ptr %12)
  ret ptr %6
}

; Function Attrs: cold mustprogress optsize uwtable
define dso_local void @_ZN4absl12log_internal15LogMessageFatalC2EPKciS3_(ptr noundef nonnull align 8 dereferenceable(16) %0, ptr noundef %1, i32 noundef %2, ptr noundef %3) unnamed_addr #10 align 2 personality ptr @__gxx_personality_v0 {
  %5 = alloca ptr, align 8
  %6 = alloca ptr, align 8
  %7 = alloca i32, align 4
  %8 = alloca ptr, align 8
  %9 = alloca ptr, align 8
  %10 = alloca i32, align 4
  store ptr %0, ptr %5, align 8, !tbaa !167
  store ptr %1, ptr %6, align 8, !tbaa !11
  store i32 %2, ptr %7, align 4, !tbaa !36
  store ptr %3, ptr %8, align 8, !tbaa !11
  %11 = load ptr, ptr %5, align 8
  %12 = load ptr, ptr %6, align 8, !tbaa !11
  %13 = load i32, ptr %7, align 4, !tbaa !36
  call void @_ZN4absl12log_internal10LogMessageC2EPKciNS_11LogSeverityE(ptr noundef nonnull align 8 dereferenceable(16) %11, ptr noundef %12, i32 noundef %13, i32 noundef 3) #30
  %14 = invoke noundef nonnull align 8 dereferenceable(16) ptr @_ZN4absl12log_internal10LogMessagelsILi15EEERS1_RAT__Kc(ptr noundef nonnull align 8 dereferenceable(16) %11, ptr noundef nonnull align 1 dereferenceable(15) @.str.9)
          to label %15 unwind label %20

15:                                               ; preds = %4
  %16 = invoke noundef nonnull align 8 dereferenceable(16) ptr @_ZN4absl12log_internal10LogMessagelsIPKcTnNSt9enable_ifIXntsr4absl16HasAbslStringifyIT_EE5valueEiE4typeELi0EEERS1_RKS6_(ptr noundef nonnull align 8 dereferenceable(16) %14, ptr noundef nonnull align 8 dereferenceable(8) %8)
          to label %17 unwind label %20

17:                                               ; preds = %15
  %18 = invoke noundef nonnull align 8 dereferenceable(16) ptr @_ZN4absl12log_internal10LogMessagelsILi2EEERS1_RAT__Kc(ptr noundef nonnull align 8 dereferenceable(16) %16, ptr noundef nonnull align 1 dereferenceable(2) @.str.10)
          to label %19 unwind label %20

19:                                               ; preds = %17
  ret void

20:                                               ; preds = %17, %15, %4
  %21 = landingpad { ptr, i32 }
          cleanup
  %22 = extractvalue { ptr, i32 } %21, 0
  store ptr %22, ptr %9, align 8
  %23 = extractvalue { ptr, i32 } %21, 1
  store i32 %23, ptr %10, align 4
  call void @_ZN4absl12log_internal10LogMessageD2Ev(ptr noundef nonnull align 8 dereferenceable(16) %11) #31
  br label %24

24:                                               ; preds = %20
  %25 = load ptr, ptr %9, align 8
  %26 = load i32, ptr %10, align 4
  %27 = insertvalue { ptr, i32 } poison, ptr %25, 0
  %28 = insertvalue { ptr, i32 } %27, i32 %26, 1
  resume { ptr, i32 } %28
}