; Function Attrs: cold mustprogress optsize uwtable
define dso_local void @_ZN4absl12log_internal15LogMessageFatalC2EPKciS3_(ptr noundef nonnull align 8 dereferenceable(16) initializes((0, 4)) %0, ptr noundef %1, i32 noundef %2, ptr noundef %3) unnamed_addr #7 align 2 personality ptr @__gxx_personality_v0 {
  %5 = alloca ptr, align 8
  store ptr %3, ptr %5, align 8, !tbaa !44
  tail call void @_ZN4absl12log_internal10LogMessageC2EPKciNS_11LogSeverityE(ptr noundef nonnull align 8 dereferenceable(16) %0, ptr noundef %1, i32 noundef %2, i32 noundef 3) #32
  invoke void @_ZN4absl12log_internal10LogMessage19CopyToEncodedBufferILNS1_10StringTypeE0EEEvSt17basic_string_viewIcSt11char_traitsIcEE(ptr noundef nonnull align 8 dereferenceable(16) %0, i64 14, ptr nonnull @.str.9)
          to label %_ZN4absl12log_internal10LogMessagelsILi15EEERS1_RAT__Kc.exit unwind label %8

_ZN4absl12log_internal10LogMessagelsILi15EEERS1_RAT__Kc.exit: ; preds = %4
  %6 = invoke noundef nonnull align 8 dereferenceable(16) ptr @_ZN4absl12log_internal10LogMessagelsIPKcTnNSt9enable_ifIXntsr4absl16HasAbslStringifyIT_EE5valueEiE4typeELi0EEERS1_RKS6_(ptr noundef nonnull align 8 dereferenceable(16) %0, ptr noundef nonnull align 8 dereferenceable(8) %5)
          to label %7 unwind label %8

7:                                                ; preds = %_ZN4absl12log_internal10LogMessagelsILi15EEERS1_RAT__Kc.exit
  invoke void @_ZN4absl12log_internal10LogMessage19CopyToEncodedBufferILNS1_10StringTypeE0EEEvSt17basic_string_viewIcSt11char_traitsIcEE(ptr noundef nonnull align 8 dereferenceable(16) %6, i64 1, ptr nonnull @.str.10)
          to label %_ZN4absl12log_internal10LogMessagelsILi2EEERS1_RAT__Kc.exit unwind label %8

_ZN4absl12log_internal10LogMessagelsILi2EEERS1_RAT__Kc.exit: ; preds = %7
  ret void

8:                                                ; preds = %7, %4, %_ZN4absl12log_internal10LogMessagelsILi15EEERS1_RAT__Kc.exit
  %9 = landingpad { ptr, i32 }
          cleanup
  call void @_ZN4absl12log_internal10LogMessageD2Ev(ptr noundef nonnull align 8 dereferenceable(16) %0) #35
  resume { ptr, i32 } %9
}